; ModuleID = '58/1064.c'
source_filename = "58/1064.c"
target datalayout = "e-m:e-p270:32:32-p271:32:32-p272:64:64-i64:64-f80:128-n8:16:32:64-S128"
target triple = "x86_64-pc-linux-gnu"

@.str = private unnamed_addr constant [4 x i8] c"%d\0A\00", align 1
@.str.1 = private unnamed_addr constant [3 x i8] c"0\0A\00", align 1
@.str.2 = private unnamed_addr constant [3 x i8] c"1\0A\00", align 1

; Function Attrs: noinline nounwind uwtable
define dso_local i32 @main() #0 {
  %1 = alloca i32, align 4
  %2 = alloca i32, align 4
  %3 = alloca i32, align 4
  %4 = alloca i32, align 4
  %5 = alloca [100 x i8], align 16
  %6 = alloca i32, align 4
  store i32 0, i32* %1, align 4
  %7 = call i32 (i8*, ...) @__isoc99_scanf(i8* getelementptr inbounds ([4 x i8], [4 x i8]* @.str, i64 0, i64 0), i32* %2)
  store i32 0, i32* %3, align 4
  br label %8

8:                                                ; preds = %269, %0
  %9 = load i32, i32* %3, align 4
  %10 = load i32, i32* %2, align 4
  %11 = icmp slt i32 %9, %10
  br i1 %11, label %12, label %272

12:                                               ; preds = %8
  %13 = getelementptr inbounds [100 x i8], [100 x i8]* %5, i64 0, i64 0
  %14 = call i32 (i8*, ...) bitcast (i32 (...)* @gets to i32 (i8*, ...)*)(i8* %13)
  %15 = getelementptr inbounds [100 x i8], [100 x i8]* %5, i64 0, i64 0
  %16 = call i64 @strlen(i8* %15) #3
  %17 = trunc i64 %16 to i32
  store i32 %17, i32* %4, align 4
  %18 = getelementptr inbounds [100 x i8], [100 x i8]* %5, i64 0, i64 0
  %19 = load i8, i8* %18, align 16
  %20 = sext i8 %19 to i32
  %21 = icmp eq i32 %20, 95
  br i1 %21, label %22, label %96

22:                                               ; preds = %12
  store i32 1, i32* %6, align 4
  br label %23

23:                                               ; preds = %86, %22
  %24 = load i32, i32* %6, align 4
  %25 = load i32, i32* %4, align 4
  %26 = icmp slt i32 %24, %25
  br i1 %26, label %27, label %89

27:                                               ; preds = %23
  %28 = load i32, i32* %6, align 4
  %29 = sext i32 %28 to i64
  %30 = getelementptr inbounds [100 x i8], [100 x i8]* %5, i64 0, i64 %29
  %31 = load i8, i8* %30, align 1
  %32 = sext i8 %31 to i32
  %33 = icmp sge i32 %32, 65
  br i1 %33, label %34, label %42

34:                                               ; preds = %27
  %35 = load i32, i32* %6, align 4
  %36 = sext i32 %35 to i64
  %37 = getelementptr inbounds [100 x i8], [100 x i8]* %5, i64 0, i64 %36
  %38 = load i8, i8* %37, align 1
  %39 = sext i8 %38 to i32
  %40 = icmp sle i32 %39, 90
  br i1 %40, label %41, label %42

41:                                               ; preds = %34
  br label %85

42:                                               ; preds = %34, %27
  %43 = load i32, i32* %6, align 4
  %44 = sext i32 %43 to i64
  %45 = getelementptr inbounds [100 x i8], [100 x i8]* %5, i64 0, i64 %44
  %46 = load i8, i8* %45, align 1
  %47 = sext i8 %46 to i32
  %48 = icmp eq i32 %47, 95
  br i1 %48, label %49, label %50

49:                                               ; preds = %42
  br label %84

50:                                               ; preds = %42
  %51 = load i32, i32* %6, align 4
  %52 = sext i32 %51 to i64
  %53 = getelementptr inbounds [100 x i8], [100 x i8]* %5, i64 0, i64 %52
  %54 = load i8, i8* %53, align 1
  %55 = sext i8 %54 to i32
  %56 = icmp sge i32 %55, 97
  br i1 %56, label %57, label %65

57:                                               ; preds = %50
  %58 = load i32, i32* %6, align 4
  %59 = sext i32 %58 to i64
  %60 = getelementptr inbounds [100 x i8], [100 x i8]* %5, i64 0, i64 %59
  %61 = load i8, i8* %60, align 1
  %62 = sext i8 %61 to i32
  %63 = icmp sle i32 %62, 122
  br i1 %63, label %64, label %65

64:                                               ; preds = %57
  br label %83

65:                                               ; preds = %57, %50
  %66 = load i32, i32* %6, align 4
  %67 = sext i32 %66 to i64
  %68 = getelementptr inbounds [100 x i8], [100 x i8]* %5, i64 0, i64 %67
  %69 = load i8, i8* %68, align 1
  %70 = sext i8 %69 to i32
  %71 = icmp sge i32 %70, 48
  br i1 %71, label %72, label %80

72:                                               ; preds = %65
  %73 = load i32, i32* %6, align 4
  %74 = sext i32 %73 to i64
  %75 = getelementptr inbounds [100 x i8], [100 x i8]* %5, i64 0, i64 %74
  %76 = load i8, i8* %75, align 1
  %77 = sext i8 %76 to i32
  %78 = icmp sle i32 %77, 57
  br i1 %78, label %79, label %80

79:                                               ; preds = %72
  br label %82

80:                                               ; preds = %72, %65
  %81 = call i32 (i8*, ...) @printf(i8* getelementptr inbounds ([3 x i8], [3 x i8]* @.str.1, i64 0, i64 0))
  br label %89

82:                                               ; preds = %79
  br label %83

83:                                               ; preds = %82, %64
  br label %84

84:                                               ; preds = %83, %49
  br label %85

85:                                               ; preds = %84, %41
  br label %86

86:                                               ; preds = %85
  %87 = load i32, i32* %6, align 4
  %88 = add nsw i32 %87, 1
  store i32 %88, i32* %6, align 4
  br label %23

89:                                               ; preds = %80, %23
  %90 = load i32, i32* %6, align 4
  %91 = load i32, i32* %4, align 4
  %92 = icmp eq i32 %90, %91
  br i1 %92, label %93, label %95

93:                                               ; preds = %89
  %94 = call i32 (i8*, ...) @printf(i8* getelementptr inbounds ([3 x i8], [3 x i8]* @.str.2, i64 0, i64 0))
  br label %95

95:                                               ; preds = %93, %89
  br label %268

96:                                               ; preds = %12
  %97 = getelementptr inbounds [100 x i8], [100 x i8]* %5, i64 0, i64 0
  %98 = load i8, i8* %97, align 16
  %99 = sext i8 %98 to i32
  %100 = icmp sge i32 %99, 97
  br i1 %100, label %101, label %180

101:                                              ; preds = %96
  %102 = getelementptr inbounds [100 x i8], [100 x i8]* %5, i64 0, i64 0
  %103 = load i8, i8* %102, align 16
  %104 = sext i8 %103 to i32
  %105 = icmp sle i32 %104, 122
  br i1 %105, label %106, label %180

106:                                              ; preds = %101
  store i32 1, i32* %6, align 4
  br label %107

107:                                              ; preds = %170, %106
  %108 = load i32, i32* %6, align 4
  %109 = load i32, i32* %4, align 4
  %110 = icmp slt i32 %108, %109
  br i1 %110, label %111, label %173

111:                                              ; preds = %107
  %112 = load i32, i32* %6, align 4
  %113 = sext i32 %112 to i64
  %114 = getelementptr inbounds [100 x i8], [100 x i8]* %5, i64 0, i64 %113
  %115 = load i8, i8* %114, align 1
  %116 = sext i8 %115 to i32
  %117 = icmp sge i32 %116, 65
  br i1 %117, label %118, label %126

118:                                              ; preds = %111
  %119 = load i32, i32* %6, align 4
  %120 = sext i32 %119 to i64
  %121 = getelementptr inbounds [100 x i8], [100 x i8]* %5, i64 0, i64 %120
  %122 = load i8, i8* %121, align 1
  %123 = sext i8 %122 to i32
  %124 = icmp sle i32 %123, 90
  br i1 %124, label %125, label %126

125:                                              ; preds = %118
  br label %169

126:                                              ; preds = %118, %111
  %127 = load i32, i32* %6, align 4
  %128 = sext i32 %127 to i64
  %129 = getelementptr inbounds [100 x i8], [100 x i8]* %5, i64 0, i64 %128
  %130 = load i8, i8* %129, align 1
  %131 = sext i8 %130 to i32
  %132 = icmp eq i32 %131, 95
  br i1 %132, label %133, label %134

133:                                              ; preds = %126
  br label %168

134:                                              ; preds = %126
  %135 = load i32, i32* %6, align 4
  %136 = sext i32 %135 to i64
  %137 = getelementptr inbounds [100 x i8], [100 x i8]* %5, i64 0, i64 %136
  %138 = load i8, i8* %137, align 1
  %139 = sext i8 %138 to i32
  %140 = icmp sge i32 %139, 97
  br i1 %140, label %141, label %149

141:                                              ; preds = %134
  %142 = load i32, i32* %6, align 4
  %143 = sext i32 %142 to i64
  %144 = getelementptr inbounds [100 x i8], [100 x i8]* %5, i64 0, i64 %143
  %145 = load i8, i8* %144, align 1
  %146 = sext i8 %145 to i32
  %147 = icmp sle i32 %146, 122
  br i1 %147, label %148, label %149

148:                                              ; preds = %141
  br label %167

149:                                              ; preds = %141, %134
  %150 = load i32, i32* %6, align 4
  %151 = sext i32 %150 to i64
  %152 = getelementptr inbounds [100 x i8], [100 x i8]* %5, i64 0, i64 %151
  %153 = load i8, i8* %152, align 1
  %154 = sext i8 %153 to i32
  %155 = icmp sge i32 %154, 48
  br i1 %155, label %156, label %164

156:                                              ; preds = %149
  %157 = load i32, i32* %6, align 4
  %158 = sext i32 %157 to i64
  %159 = getelementptr inbounds [100 x i8], [100 x i8]* %5, i64 0, i64 %158
  %160 = load i8, i8* %159, align 1
  %161 = sext i8 %160 to i32
  %162 = icmp sle i32 %161, 57
  br i1 %162, label %163, label %164

163:                                              ; preds = %156
  br label %166

164:                                              ; preds = %156, %149
  %165 = call i32 (i8*, ...) @printf(i8* getelementptr inbounds ([3 x i8], [3 x i8]* @.str.1, i64 0, i64 0))
  br label %173

166:                                              ; preds = %163
  br label %167

167:                                              ; preds = %166, %148
  br label %168

168:                                              ; preds = %167, %133
  br label %169

169:                                              ; preds = %168, %125
  br label %170

170:                                              ; preds = %169
  %171 = load i32, i32* %6, align 4
  %172 = add nsw i32 %171, 1
  store i32 %172, i32* %6, align 4
  br label %107

173:                                              ; preds = %164, %107
  %174 = load i32, i32* %6, align 4
  %175 = load i32, i32* %4, align 4
  %176 = icmp eq i32 %174, %175
  br i1 %176, label %177, label %179

177:                                              ; preds = %173
  %178 = call i32 (i8*, ...) @printf(i8* getelementptr inbounds ([3 x i8], [3 x i8]* @.str.2, i64 0, i64 0))
  br label %179

179:                                              ; preds = %177, %173
  br label %267

180:                                              ; preds = %101, %96
  %181 = getelementptr inbounds [100 x i8], [100 x i8]* %5, i64 0, i64 0
  %182 = load i8, i8* %181, align 16
  %183 = sext i8 %182 to i32
  %184 = icmp sge i32 %183, 65
  br i1 %184, label %185, label %264

185:                                              ; preds = %180
  %186 = getelementptr inbounds [100 x i8], [100 x i8]* %5, i64 0, i64 0
  %187 = load i8, i8* %186, align 16
  %188 = sext i8 %187 to i32
  %189 = icmp sle i32 %188, 90
  br i1 %189, label %190, label %264

190:                                              ; preds = %185
  store i32 1, i32* %6, align 4
  br label %191

191:                                              ; preds = %254, %190
  %192 = load i32, i32* %6, align 4
  %193 = load i32, i32* %4, align 4
  %194 = icmp slt i32 %192, %193
  br i1 %194, label %195, label %257

195:                                              ; preds = %191
  %196 = load i32, i32* %6, align 4
  %197 = sext i32 %196 to i64
  %198 = getelementptr inbounds [100 x i8], [100 x i8]* %5, i64 0, i64 %197
  %199 = load i8, i8* %198, align 1
  %200 = sext i8 %199 to i32
  %201 = icmp sge i32 %200, 65
  br i1 %201, label %202, label %210

202:                                              ; preds = %195
  %203 = load i32, i32* %6, align 4
  %204 = sext i32 %203 to i64
  %205 = getelementptr inbounds [100 x i8], [100 x i8]* %5, i64 0, i64 %204
  %206 = load i8, i8* %205, align 1
  %207 = sext i8 %206 to i32
  %208 = icmp sle i32 %207, 90
  br i1 %208, label %209, label %210

209:                                              ; preds = %202
  br label %253

210:                                              ; preds = %202, %195
  %211 = load i32, i32* %6, align 4
  %212 = sext i32 %211 to i64
  %213 = getelementptr inbounds [100 x i8], [100 x i8]* %5, i64 0, i64 %212
  %214 = load i8, i8* %213, align 1
  %215 = sext i8 %214 to i32
  %216 = icmp eq i32 %215, 95
  br i1 %216, label %217, label %218

217:                                              ; preds = %210
  br label %252

218:                                              ; preds = %210
  %219 = load i32, i32* %6, align 4
  %220 = sext i32 %219 to i64
  %221 = getelementptr inbounds [100 x i8], [100 x i8]* %5, i64 0, i64 %220
  %222 = load i8, i8* %221, align 1
  %223 = sext i8 %222 to i32
  %224 = icmp sge i32 %223, 97
  br i1 %224, label %225, label %233

225:                                              ; preds = %218
  %226 = load i32, i32* %6, align 4
  %227 = sext i32 %226 to i64
  %228 = getelementptr inbounds [100 x i8], [100 x i8]* %5, i64 0, i64 %227
  %229 = load i8, i8* %228, align 1
  %230 = sext i8 %229 to i32
  %231 = icmp sle i32 %230, 122
  br i1 %231, label %232, label %233

232:                                              ; preds = %225
  br label %251

233:                                              ; preds = %225, %218
  %234 = load i32, i32* %6, align 4
  %235 = sext i32 %234 to i64
  %236 = getelementptr inbounds [100 x i8], [100 x i8]* %5, i64 0, i64 %235
  %237 = load i8, i8* %236, align 1
  %238 = sext i8 %237 to i32
  %239 = icmp sge i32 %238, 48
  br i1 %239, label %240, label %248

240:                                              ; preds = %233
  %241 = load i32, i32* %6, align 4
  %242 = sext i32 %241 to i64
  %243 = getelementptr inbounds [100 x i8], [100 x i8]* %5, i64 0, i64 %242
  %244 = load i8, i8* %243, align 1
  %245 = sext i8 %244 to i32
  %246 = icmp sle i32 %245, 57
  br i1 %246, label %247, label %248

247:                                              ; preds = %240
  br label %250

248:                                              ; preds = %240, %233
  %249 = call i32 (i8*, ...) @printf(i8* getelementptr inbounds ([3 x i8], [3 x i8]* @.str.1, i64 0, i64 0))
  br label %257

250:                                              ; preds = %247
  br label %251

251:                                              ; preds = %250, %232
  br label %252

252:                                              ; preds = %251, %217
  br label %253

253:                                              ; preds = %252, %209
  br label %254

254:                                              ; preds = %253
  %255 = load i32, i32* %6, align 4
  %256 = add nsw i32 %255, 1
  store i32 %256, i32* %6, align 4
  br label %191

257:                                              ; preds = %248, %191
  %258 = load i32, i32* %6, align 4
  %259 = load i32, i32* %4, align 4
  %260 = icmp eq i32 %258, %259
  br i1 %260, label %261, label %263

261:                                              ; preds = %257
  %262 = call i32 (i8*, ...) @printf(i8* getelementptr inbounds ([3 x i8], [3 x i8]* @.str.2, i64 0, i64 0))
  br label %263

263:                                              ; preds = %261, %257
  br label %266

264:                                              ; preds = %185, %180
  %265 = call i32 (i8*, ...) @printf(i8* getelementptr inbounds ([3 x i8], [3 x i8]* @.str.1, i64 0, i64 0))
  br label %266

266:                                              ; preds = %264, %263
  br label %267

267:                                              ; preds = %266, %179
  br label %268

268:                                              ; preds = %267, %95
  br label %269

269:                                              ; preds = %268
  %270 = load i32, i32* %3, align 4
  %271 = add nsw i32 %270, 1
  store i32 %271, i32* %3, align 4
  br label %8

272:                                              ; preds = %8
  %273 = call i32 @getchar()
  %274 = call i32 @getchar()
  %275 = call i32 @getchar()
  %276 = load i32, i32* %1, align 4
  ret i32 %276
}

declare dso_local i32 @__isoc99_scanf(i8*, ...) #1

declare dso_local i32 @gets(...) #1

; Function Attrs: nounwind readonly
declare dso_local i64 @strlen(i8*) #2

declare dso_local i32 @printf(i8*, ...) #1

declare dso_local i32 @getchar() #1


!llvm.module.flags = !{!0}
!llvm.ident = !{!1}

!0 = !{i32 1, !"wchar_size", i32 4}
!1 = !{!"clang version 10.0.0-4ubuntu1 "}
